target datalayout = "e-m:e-p270:32:32-p271:32:32-p272:64:64-i64:64-i128:128-f80:128-n8:16:32:64-S128"
target triple = "x86_64-unknown-linux-gnu"

%struct.QIOChannelWebsock = type { %struct.QIOChannel, ptr, %struct.Buffer, %struct.Buffer, %struct.Buffer, i64, i64, %union.QIOChannelWebsockMask, i32, ptr, i32, i8 }
%struct.QIOChannel = type { %struct.Object, i32, ptr, ptr, ptr, ptr, ptr, i8 }
%struct.Object = type { ptr, ptr, ptr, i32, ptr }
%struct.Buffer = type { ptr, i64, i64, i64, ptr }
%union.QIOChannelWebsockMask = type { i32 }
%struct.timeval = type { i64, i64 }

@.str = private unnamed_addr constant [20 x i8] c"qio-channel-websock\00", align 1
@.str.1 = private unnamed_addr constant [107 x i8] c"/home/dtcxzyw/WorkSpace/Projects/compilers/llvm-opt-benchmark/bench/qemu/qemu/include/io/channel-websock.h\00", align 1
@__func__.QIO_CHANNEL_WEBSOCK = private unnamed_addr constant [20 x i8] c"QIO_CHANNEL_WEBSOCK\00", align 1
@trace_events_enabled_count = external global i32, align 4
@message_with_timestamp = external global i8, align 1
@qemu_loglevel = external global i32, align 4
@_TRACE_QIO_CHANNEL_WEBSOCK_CLOSE_DSTATE = external global i16, align 2
@.str.88 = private unnamed_addr constant [63 x i8] c"%d@%zu.%06zu:qio_channel_websock_close Websocket close ioc=%p\0A\00", align 1
@.str.89 = private unnamed_addr constant [50 x i8] c"qio_channel_websock_close Websocket close ioc=%p\0A\00", align 1

; Function Attrs: nounwind sspstrong uwtable
define internal zeroext i1 @qemu_loglevel_mask(i32 noundef %mask) #0 {
entry:
  %mask.addr = alloca i32, align 4
  store i32 %mask, ptr %mask.addr, align 4
  %0 = load i32, ptr @qemu_loglevel, align 4
  %1 = load i32, ptr %mask.addr, align 4
  %and = and i32 %0, %1
  %cmp = icmp ne i32 %and, 0
  ret i1 %cmp
}

; Function Attrs: nounwind sspstrong uwtable
define internal void @_nocheck__trace_qio_channel_websock_close(ptr noundef %ioc) #0 {
entry:
  %ioc.addr = alloca ptr, align 8
  %_now = alloca %struct.timeval, align 8
  store ptr %ioc, ptr %ioc.addr, align 8
  %0 = load i32, ptr @trace_events_enabled_count, align 4
  %tobool = icmp ne i32 %0, 0
  %lnot = xor i1 %tobool, true
  %lnot1 = xor i1 %lnot, true
  %lnot.ext = zext i1 %lnot1 to i32
  %conv = sext i32 %lnot.ext to i64
  %tobool2 = icmp ne i64 %conv, 0
  br i1 %tobool2, label %land.lhs.true, label %if.end11

land.lhs.true:                                    ; preds = %entry
  %1 = load i16, ptr @_TRACE_QIO_CHANNEL_WEBSOCK_CLOSE_DSTATE, align 2
  %conv3 = zext i16 %1 to i32
  %tobool4 = icmp ne i32 %conv3, 0
  br i1 %tobool4, label %land.lhs.true5, label %if.end11

land.lhs.true5:                                   ; preds = %land.lhs.true
  %call = call zeroext i1 @qemu_loglevel_mask(i32 noundef 32768)
  br i1 %call, label %if.then, label %if.end11

if.then:                                          ; preds = %land.lhs.true5
  %2 = load i8, ptr @message_with_timestamp, align 1
  %tobool7 = trunc i8 %2 to i1
  br i1 %tobool7, label %if.then8, label %if.else

if.then8:                                         ; preds = %if.then
  %call9 = call i32 @gettimeofday(ptr noundef %_now, ptr noundef null) #10
  %call10 = call i32 @qemu_get_thread_id()
  %tv_sec = getelementptr inbounds %struct.timeval, ptr %_now, i32 0, i32 0
  %3 = load i64, ptr %tv_sec, align 8
  %tv_usec = getelementptr inbounds %struct.timeval, ptr %_now, i32 0, i32 1
  %4 = load i64, ptr %tv_usec, align 8
  %5 = load ptr, ptr %ioc.addr, align 8
  call void (ptr, ...) @qemu_log(ptr noundef @.str.88, i32 noundef %call10, i64 noundef %3, i64 noundef %4, ptr noundef %5)
  br label %if.end

if.else:                                          ; preds = %if.then
  %6 = load ptr, ptr %ioc.addr, align 8
  call void (ptr, ...) @qemu_log(ptr noundef @.str.89, ptr noundef %6)
  br label %if.end

if.end:                                           ; preds = %if.else, %if.then8
  br label %if.end11

if.end11:                                         ; preds = %if.end, %land.lhs.true5, %land.lhs.true, %entry
  ret void
}

; Function Attrs: nounwind sspstrong uwtable
define internal void @trace_qio_channel_websock_close(ptr noundef %ioc) #0 {
entry:
  %ioc.addr = alloca ptr, align 8
  store ptr %ioc, ptr %ioc.addr, align 8
  %0 = load ptr, ptr %ioc.addr, align 8
  call void @_nocheck__trace_qio_channel_websock_close(ptr noundef %0)
  ret void
}

; Function Attrs: nounwind sspstrong uwtable
define internal ptr @QIO_CHANNEL_WEBSOCK(ptr noundef %obj) #0 {
entry:
  %obj.addr = alloca ptr, align 8
  store ptr %obj, ptr %obj.addr, align 8
  %0 = load ptr, ptr %obj.addr, align 8
  %call = call ptr @object_dynamic_cast_assert(ptr noundef %0, ptr noundef @.str, ptr noundef @.str.1, i32 noundef 30, ptr noundef @__func__.QIO_CHANNEL_WEBSOCK)
  ret ptr %call
}

; Function Attrs: nounwind sspstrong uwtable
define internal i32 @qio_channel_websock_close(ptr noundef %ioc, ptr noundef %errp) #0 {
entry:
  %ioc.addr = alloca ptr, align 8
  %errp.addr = alloca ptr, align 8
  %wioc = alloca ptr, align 8
  store ptr %ioc, ptr %ioc.addr, align 8
  store ptr %errp, ptr %errp.addr, align 8
  %0 = load ptr, ptr %ioc.addr, align 8
  %call = call ptr @QIO_CHANNEL_WEBSOCK(ptr noundef %0)
  store ptr %call, ptr %wioc, align 8
  %1 = load ptr, ptr %ioc.addr, align 8
  call void @trace_qio_channel_websock_close(ptr noundef %1)
  %2 = load ptr, ptr %wioc, align 8
  %master = getelementptr inbounds %struct.QIOChannelWebsock, ptr %2, i32 0, i32 1
  %3 = load ptr, ptr %master, align 8
  %4 = load ptr, ptr %errp.addr, align 8
  %call1 = call i32 @qio_channel_close(ptr noundef %3, ptr noundef %4)
  ret i32 %call1
}